target datalayout = "e-m:e-p270:32:32-p271:32:32-p272:64:64-i64:64-i128:128-f80:128-n8:16:32:64-S128"
target triple = "x86_64-unknown-linux-gnu"

%class.b3Vector3 = type { %union.anon }
%union.anon = type { [4 x float] }
%struct.AabbCalculationCallback = type { %class.b3InternalTriangleIndexCallback, [8 x i8], %class.b3Vector3, %class.b3Vector3 }
%class.b3InternalTriangleIndexCallback = type { ptr }

@_ZTV31b3InternalTriangleIndexCallback = external unnamed_addr constant { [5 x ptr] }, align 8

; Function Attrs: mustprogress nounwind uwtable
define linkonce_odr dso_local void @_ZN31b3InternalTriangleIndexCallbackC2Ev(ptr noundef nonnull align 8 dereferenceable(8) %this) unnamed_addr #0 comdat align 2 {
entry:
  %this.addr = alloca ptr, align 8
  store ptr %this, ptr %this.addr, align 8
  %this1 = load ptr, ptr %this.addr, align 8
  store ptr getelementptr inbounds ({ [5 x ptr] }, ptr @_ZTV31b3InternalTriangleIndexCallback, i32 0, i32 0, i32 2), ptr %this1, align 8
  ret void
}

; Function Attrs: mustprogress nounwind uwtable
define internal void @_ZZN23b3StridingMeshInterface23calculateAabbBruteForceER9b3Vector3S1_EN23AabbCalculationCallbackD2Ev(ptr noundef nonnull align 16 dereferenceable(48) %this) unnamed_addr #0 align 2 {
entry:
  %this.addr = alloca ptr, align 8
  store ptr %this, ptr %this.addr, align 8
  %this1 = load ptr, ptr %this.addr, align 8
  call void @_ZN31b3InternalTriangleIndexCallbackD2Ev(ptr noundef nonnull align 8 dereferenceable(8) %this1) #7
  ret void
}

; Function Attrs: mustprogress nounwind uwtable
define linkonce_odr dso_local void @_ZN9b3Vector38setValueERKfS1_S1_(ptr noundef nonnull align 16 dereferenceable(16) %this, ptr noundef nonnull align 4 dereferenceable(4) %_x, ptr noundef nonnull align 4 dereferenceable(4) %_y, ptr noundef nonnull align 4 dereferenceable(4) %_z) #0 comdat align 2 {
entry:
  %this.addr = alloca ptr, align 8
  %_x.addr = alloca ptr, align 8
  %_y.addr = alloca ptr, align 8
  %_z.addr = alloca ptr, align 8
  store ptr %this, ptr %this.addr, align 8
  store ptr %_x, ptr %_x.addr, align 8
  store ptr %_y, ptr %_y.addr, align 8
  store ptr %_z, ptr %_z.addr, align 8
  %this1 = load ptr, ptr %this.addr, align 8
  %0 = load ptr, ptr %_x.addr, align 8
  %1 = load float, ptr %0, align 4
  %2 = getelementptr inbounds %class.b3Vector3, ptr %this1, i32 0, i32 0
  %arrayidx = getelementptr inbounds [4 x float], ptr %2, i64 0, i64 0
  store float %1, ptr %arrayidx, align 16
  %3 = load ptr, ptr %_y.addr, align 8
  %4 = load float, ptr %3, align 4
  %5 = getelementptr inbounds %class.b3Vector3, ptr %this1, i32 0, i32 0
  %arrayidx2 = getelementptr inbounds [4 x float], ptr %5, i64 0, i64 1
  store float %4, ptr %arrayidx2, align 4
  %6 = load ptr, ptr %_z.addr, align 8
  %7 = load float, ptr %6, align 4
  %8 = getelementptr inbounds %class.b3Vector3, ptr %this1, i32 0, i32 0
  %arrayidx3 = getelementptr inbounds [4 x float], ptr %8, i64 0, i64 2
  store float %7, ptr %arrayidx3, align 8
  %9 = getelementptr inbounds %class.b3Vector3, ptr %this1, i32 0, i32 0
  %arrayidx4 = getelementptr inbounds [4 x float], ptr %9, i64 0, i64 3
  store float 0.000000e+00, ptr %arrayidx4, align 4
  ret void
}

; Function Attrs: mustprogress nounwind uwtable
define internal void @_ZZN23b3StridingMeshInterface23calculateAabbBruteForceER9b3Vector3S1_EN23AabbCalculationCallbackC2Ev(ptr noundef nonnull align 16 dereferenceable(48) %this) unnamed_addr #0 align 2 {
entry:
  %this.addr = alloca ptr, align 8
  %ref.tmp = alloca float, align 4
  %ref.tmp3 = alloca float, align 4
  %ref.tmp4 = alloca float, align 4
  %ref.tmp6 = alloca float, align 4
  %ref.tmp7 = alloca float, align 4
  %ref.tmp8 = alloca float, align 4
  store ptr %this, ptr %this.addr, align 8
  %this1 = load ptr, ptr %this.addr, align 8
  call void @_ZN31b3InternalTriangleIndexCallbackC2Ev(ptr noundef nonnull align 8 dereferenceable(8) %this1) #7
  store ptr getelementptr inbounds ({ [5 x ptr] }, ptr @_ZTVZN23b3StridingMeshInterface23calculateAabbBruteForceER9b3Vector3S1_E23AabbCalculationCallback, i32 0, i32 0, i32 2), ptr %this1, align 16
  %m_aabbMin2 = getelementptr inbounds %struct.AabbCalculationCallback, ptr %this1, i32 0, i32 2
  store float 0x43ABC16D60000000, ptr %ref.tmp, align 4
  store float 0x43ABC16D60000000, ptr %ref.tmp3, align 4
  store float 0x43ABC16D60000000, ptr %ref.tmp4, align 4
  call void @_ZN9b3Vector38setValueERKfS1_S1_(ptr noundef nonnull align 16 dereferenceable(16) %m_aabbMin2, ptr noundef nonnull align 4 dereferenceable(4) %ref.tmp, ptr noundef nonnull align 4 dereferenceable(4) %ref.tmp3, ptr noundef nonnull align 4 dereferenceable(4) %ref.tmp4)
  %m_aabbMax5 = getelementptr inbounds %struct.AabbCalculationCallback, ptr %this1, i32 0, i32 3
  store float 0xC3ABC16D60000000, ptr %ref.tmp6, align 4
  store float 0xC3ABC16D60000000, ptr %ref.tmp7, align 4
  store float 0xC3ABC16D60000000, ptr %ref.tmp8, align 4
  call void @_ZN9b3Vector38setValueERKfS1_S1_(ptr noundef nonnull align 16 dereferenceable(16) %m_aabbMax5, ptr noundef nonnull align 4 dereferenceable(4) %ref.tmp6, ptr noundef nonnull align 4 dereferenceable(4) %ref.tmp7, ptr noundef nonnull align 4 dereferenceable(4) %ref.tmp8)
  ret void
}

; Function Attrs: mustprogress uwtable
define dso_local void @_ZN23b3StridingMeshInterface23calculateAabbBruteForceER9b3Vector3S1_(ptr noundef nonnull align 16 dereferenceable(32) %this, ptr noundef nonnull align 16 dereferenceable(16) %aabbMin, ptr noundef nonnull align 16 dereferenceable(16) %aabbMax) #2 align 2 personality ptr @__gxx_personality_v0 {
entry:
  %this.addr = alloca ptr, align 8
  %aabbMin.addr = alloca ptr, align 8
  %aabbMax.addr = alloca ptr, align 8
  %aabbCallback = alloca %struct.AabbCalculationCallback, align 16
  %ref.tmp = alloca float, align 4
  %ref.tmp2 = alloca float, align 4
  %ref.tmp3 = alloca float, align 4
  %exn.slot = alloca ptr, align 8
  %ehselector.slot = alloca i32, align 4
  %ref.tmp4 = alloca float, align 4
  %ref.tmp5 = alloca float, align 4
  %ref.tmp6 = alloca float, align 4
  store ptr %this, ptr %this.addr, align 8
  store ptr %aabbMin, ptr %aabbMin.addr, align 8
  store ptr %aabbMax, ptr %aabbMax.addr, align 8
  %this1 = load ptr, ptr %this.addr, align 8
  call void @_ZZN23b3StridingMeshInterface23calculateAabbBruteForceER9b3Vector3S1_EN23AabbCalculationCallbackC2Ev(ptr noundef nonnull align 16 dereferenceable(48) %aabbCallback)
  %0 = load ptr, ptr %aabbMin.addr, align 8
  store float 0xC3ABC16D60000000, ptr %ref.tmp, align 4
  store float 0xC3ABC16D60000000, ptr %ref.tmp2, align 4
  store float 0xC3ABC16D60000000, ptr %ref.tmp3, align 4
  invoke void @_ZN9b3Vector38setValueERKfS1_S1_(ptr noundef nonnull align 16 dereferenceable(16) %0, ptr noundef nonnull align 4 dereferenceable(4) %ref.tmp, ptr noundef nonnull align 4 dereferenceable(4) %ref.tmp2, ptr noundef nonnull align 4 dereferenceable(4) %ref.tmp3)
          to label %invoke.cont unwind label %lpad

invoke.cont:                                      ; preds = %entry
  %1 = load ptr, ptr %aabbMax.addr, align 8
  store float 0x43ABC16D60000000, ptr %ref.tmp4, align 4
  store float 0x43ABC16D60000000, ptr %ref.tmp5, align 4
  store float 0x43ABC16D60000000, ptr %ref.tmp6, align 4
  invoke void @_ZN9b3Vector38setValueERKfS1_S1_(ptr noundef nonnull align 16 dereferenceable(16) %1, ptr noundef nonnull align 4 dereferenceable(4) %ref.tmp4, ptr noundef nonnull align 4 dereferenceable(4) %ref.tmp5, ptr noundef nonnull align 4 dereferenceable(4) %ref.tmp6)
          to label %invoke.cont7 unwind label %lpad

invoke.cont7:                                     ; preds = %invoke.cont
  %2 = load ptr, ptr %aabbMin.addr, align 8
  %3 = load ptr, ptr %aabbMax.addr, align 8
  %vtable = load ptr, ptr %this1, align 16
  %vfn = getelementptr inbounds ptr, ptr %vtable, i64 2
  %4 = load ptr, ptr %vfn, align 8
  invoke void %4(ptr noundef nonnull align 16 dereferenceable(32) %this1, ptr noundef %aabbCallback, ptr noundef nonnull align 16 dereferenceable(16) %2, ptr noundef nonnull align 16 dereferenceable(16) %3)
          to label %invoke.cont8 unwind label %lpad

invoke.cont8:                                     ; preds = %invoke.cont7
  %m_aabbMin = getelementptr inbounds %struct.AabbCalculationCallback, ptr %aabbCallback, i32 0, i32 2
  %5 = load ptr, ptr %aabbMin.addr, align 8
  call void @llvm.memcpy.p0.p0.i64(ptr align 16 %5, ptr align 16 %m_aabbMin, i64 16, i1 false)
  %m_aabbMax = getelementptr inbounds %struct.AabbCalculationCallback, ptr %aabbCallback, i32 0, i32 3
  %6 = load ptr, ptr %aabbMax.addr, align 8
  call void @llvm.memcpy.p0.p0.i64(ptr align 16 %6, ptr align 16 %m_aabbMax, i64 16, i1 false)
  call void @_ZZN23b3StridingMeshInterface23calculateAabbBruteForceER9b3Vector3S1_EN23AabbCalculationCallbackD2Ev(ptr noundef nonnull align 16 dereferenceable(48) %aabbCallback) #7
  ret void

lpad:                                             ; preds = %invoke.cont7, %invoke.cont, %entry
  %7 = landingpad { ptr, i32 }
          cleanup
  %8 = extractvalue { ptr, i32 } %7, 0
  store ptr %8, ptr %exn.slot, align 8
  %9 = extractvalue { ptr, i32 } %7, 1
  store i32 %9, ptr %ehselector.slot, align 4
  call void @_ZZN23b3StridingMeshInterface23calculateAabbBruteForceER9b3Vector3S1_EN23AabbCalculationCallbackD2Ev(ptr noundef nonnull align 16 dereferenceable(48) %aabbCallback) #7
  br label %eh.resume

eh.resume:                                        ; preds = %lpad
  %exn = load ptr, ptr %exn.slot, align 8
  %sel = load i32, ptr %ehselector.slot, align 4
  %lpad.val = insertvalue { ptr, i32 } poison, ptr %exn, 0
  %lpad.val9 = insertvalue { ptr, i32 } %lpad.val, i32 %sel, 1
  resume { ptr, i32 } %lpad.val9
}